; Function Attrs: mustprogress nofree norecurse nosync nounwind willreturn memory(argmem: read) uwtable
define dso_local i32 @bipbuf_unused(ptr noundef readonly captures(none) %0) local_unnamed_addr #0 {
  %2 = getelementptr inbounds nuw i8, ptr %0, i64 20
  %3 = load i32, ptr %2, align 4, !tbaa !4
  %4 = icmp eq i32 %3, 1
  br i1 %4, label %5, label %11

5:                                                ; preds = %1
  %6 = getelementptr inbounds nuw i8, ptr %0, i64 8
  %7 = load i32, ptr %6, align 8, !tbaa !4
  %8 = getelementptr inbounds nuw i8, ptr %0, i64 16
  %9 = load i32, ptr %8, align 8, !tbaa !4
  %10 = sub i32 %7, %9
  br label %17

11:                                               ; preds = %1
  %12 = load i64, ptr %0, align 8, !tbaa !8
  %13 = getelementptr inbounds nuw i8, ptr %0, i64 12
  %14 = load i32, ptr %13, align 4, !tbaa !4
  %15 = trunc i64 %12 to i32
  %16 = sub i32 %15, %14
  br label %17

17:                                               ; preds = %11, %5
  %.0 = phi i32 [ %10, %5 ], [ %16, %11 ]
  ret i32 %.0
}